; Function Attrs: nofree norecurse nosync nounwind memory(read, inaccessiblemem: none) uwtable
define range(i32 0, 2) i32 @Gia_ManBmcCheckOutputs(ptr noundef readonly captures(none) %0, i32 noundef %1, i32 noundef %2) local_unnamed_addr #7 {
  %4 = icmp slt i32 %1, %2
  br i1 %4, label %.lr.ph, label %._crit_edge

.lr.ph:                                           ; preds = %3
  %5 = getelementptr i8, ptr %0, i64 32
  %.val8 = load ptr, ptr %5, align 8, !tbaa !32
  %6 = getelementptr i8, ptr %0, i64 72
  %.val9 = load ptr, ptr %6, align 8, !tbaa !3
  %7 = getelementptr i8, ptr %.val9, i64 8
  %.val9.val = load ptr, ptr %7, align 8, !tbaa !37
  %8 = sext i32 %1 to i64
  %wide.trip.count = sext i32 %2 to i64
  br label %10

9:                                                ; preds = %10
  %indvars.iv.next = add nsw i64 %indvars.iv, 1
  %exitcond.not = icmp eq i64 %indvars.iv.next, %wide.trip.count
  br i1 %exitcond.not, label %._crit_edge, label %10, !llvm.loop !109

10:                                               ; preds = %.lr.ph, %9
  %indvars.iv = phi i64 [ %8, %.lr.ph ], [ %indvars.iv.next, %9 ]
  %11 = getelementptr inbounds i32, ptr %.val9.val, i64 %indvars.iv
  %12 = load i32, ptr %11, align 4, !tbaa !38
  %13 = sext i32 %12 to i64
  %14 = getelementptr inbounds %struct.Gia_Obj_t_, ptr %.val8, i64 %13
  %15 = load i64, ptr %14, align 4
  %16 = and i64 %15, 536870911
  %17 = sub nsw i64 0, %16
  %18 = getelementptr inbounds %struct.Gia_Obj_t_, ptr %14, i64 %17
  %19 = lshr i64 %15, 29
  %20 = and i64 %19, 1
  %21 = ptrtoint ptr %18 to i64
  %22 = xor i64 %20, %21
  %23 = inttoptr i64 %22 to ptr
  %.not = icmp eq ptr %.val8, %23
  br i1 %.not, label %9, label %._crit_edge

._crit_edge:                                      ; preds = %10, %9, %3
  %.07 = phi i32 [ 1, %3 ], [ 1, %9 ], [ 0, %10 ]
  ret i32 %.07
}